target datalayout = "e-m:e-p270:32:32-p271:32:32-p272:64:64-i64:64-i128:128-f80:128-n8:16:32:64-S128"
target triple = "x86_64-pc-linux-gnu"

%"class.pxrInternal_v0_24__pxrReserved__::TfTemplateString" = type { %"class.std::shared_ptr" }
%"class.std::shared_ptr" = type { %"class.std::__shared_ptr" }
%"class.std::__shared_ptr" = type { ptr, %"class.std::__shared_count" }
%"class.std::__shared_count" = type { ptr }
%"struct.pxrInternal_v0_24__pxrReserved__::TfTemplateString::_Data" = type <{ %"class.std::__cxx11::basic_string", %"class.std::vector", i8, [7 x i8], %"class.std::vector.3", %"class.tbb::detail::d1::spin_mutex", [7 x i8] }>
%"class.std::__cxx11::basic_string" = type { %"struct.std::__cxx11::basic_string<char>::_Alloc_hider", i64, %union.anon }
%"struct.std::__cxx11::basic_string<char>::_Alloc_hider" = type { ptr }
%union.anon = type { i64, [8 x i8] }
%"class.std::vector" = type { %"struct.std::_Vector_base" }
%"struct.std::_Vector_base" = type { %"struct.std::_Vector_base<pxrInternal_v0_24__pxrReserved__::TfTemplateString::_PlaceHolder, std::allocator<pxrInternal_v0_24__pxrReserved__::TfTemplateString::_PlaceHolder>>::_Vector_impl" }
%"struct.std::_Vector_base<pxrInternal_v0_24__pxrReserved__::TfTemplateString::_PlaceHolder, std::allocator<pxrInternal_v0_24__pxrReserved__::TfTemplateString::_PlaceHolder>>::_Vector_impl" = type { %"struct.std::_Vector_base<pxrInternal_v0_24__pxrReserved__::TfTemplateString::_PlaceHolder, std::allocator<pxrInternal_v0_24__pxrReserved__::TfTemplateString::_PlaceHolder>>::_Vector_impl_data" }
%"struct.std::_Vector_base<pxrInternal_v0_24__pxrReserved__::TfTemplateString::_PlaceHolder, std::allocator<pxrInternal_v0_24__pxrReserved__::TfTemplateString::_PlaceHolder>>::_Vector_impl_data" = type { ptr, ptr, ptr }
%"class.std::vector.3" = type { %"struct.std::_Vector_base.4" }
%"struct.std::_Vector_base.4" = type { %"struct.std::_Vector_base<std::__cxx11::basic_string<char>, std::allocator<std::__cxx11::basic_string<char>>>::_Vector_impl" }
%"struct.std::_Vector_base<std::__cxx11::basic_string<char>, std::allocator<std::__cxx11::basic_string<char>>>::_Vector_impl" = type { %"struct.std::_Vector_base<std::__cxx11::basic_string<char>, std::allocator<std::__cxx11::basic_string<char>>>::_Vector_impl_data" }
%"struct.std::_Vector_base<std::__cxx11::basic_string<char>, std::allocator<std::__cxx11::basic_string<char>>>::_Vector_impl_data" = type { ptr, ptr, ptr }
%"class.tbb::detail::d1::spin_mutex" = type { %"struct.std::atomic" }
%"struct.std::atomic" = type { %"struct.std::__atomic_base" }
%"struct.std::__atomic_base" = type { i8 }
%"class.tbb::detail::d1::unique_scoped_lock" = type { ptr }
%"class.tbb::detail::d0::atomic_backoff" = type { i32 }

; Function Attrs: mustprogress nounwind uwtable
define internal noundef i32 @_ZL15__gthread_yieldv() #2 {
  %1 = call i32 @sched_yield() #10
  ret i32 %1
}

; Function Attrs: mustprogress nounwind uwtable
define linkonce_odr noundef i32 @_ZStanSt12memory_orderSt23__memory_order_modifier(i32 noundef %0, i32 noundef %1) #2 comdat {
  %3 = alloca i32, align 4
  %4 = alloca i32, align 4
  store i32 %0, ptr %3, align 4
  store i32 %1, ptr %4, align 4
  %5 = load i32, ptr %3, align 4
  %6 = load i32, ptr %4, align 4
  %7 = and i32 %5, %6
  ret i32 %7
}

; Function Attrs: mustprogress nounwind uwtable
define linkonce_odr void @_ZNSt11this_thread5yieldEv() #2 comdat personality ptr @__gxx_personality_v0 {
  %1 = invoke noundef i32 @_ZL15__gthread_yieldv()
          to label %2 unwind label %3

2:                                                ; preds = %0
  ret void

3:                                                ; preds = %0
  %4 = landingpad { ptr, i32 }
          catch ptr null
  %5 = extractvalue { ptr, i32 } %4, 0
  call void @__clang_call_terminate(ptr %5) #15
  unreachable
}

; Function Attrs: mustprogress nounwind uwtable
define internal void @_ZN3tbb6detail2d0L13machine_pauseEi(i32 noundef %0) #2 {
  %2 = alloca i32, align 4
  store i32 %0, ptr %2, align 4
  br label %3

3:                                                ; preds = %7, %1
  %4 = load i32, ptr %2, align 4
  %5 = add nsw i32 %4, -1
  store i32 %5, ptr %2, align 4
  %6 = icmp sgt i32 %4, 0
  br i1 %6, label %7, label %8

7:                                                ; preds = %3
  call void @llvm.x86.sse2.pause()
  br label %3, !llvm.loop !14

8:                                                ; preds = %3
  ret void
}

; Function Attrs: mustprogress nounwind uwtable
define linkonce_odr void @_ZNSt6atomicIbE5storeEbSt12memory_order(ptr noundef nonnull align 1 dereferenceable(1) %0, i1 noundef zeroext %1, i32 noundef %2) #2 comdat align 2 personality ptr @__gxx_personality_v0 {
  %4 = alloca ptr, align 8
  %5 = alloca i8, align 1
  %6 = alloca i32, align 4
  %7 = alloca i32, align 4
  %8 = alloca i8, align 1
  %9 = alloca ptr, align 8
  %10 = alloca i8, align 1
  %11 = alloca i32, align 4
  store ptr %0, ptr %9, align 8
  %12 = zext i1 %1 to i8
  store i8 %12, ptr %10, align 1
  store i32 %2, ptr %11, align 4
  %13 = load ptr, ptr %9, align 8
  %14 = getelementptr inbounds nuw %"struct.std::atomic", ptr %13, i32 0, i32 0
  %15 = load i8, ptr %10, align 1
  %16 = trunc i8 %15 to i1
  %17 = load i32, ptr %11, align 4
  store ptr %14, ptr %4, align 8
  %18 = zext i1 %16 to i8
  store i8 %18, ptr %5, align 1
  store i32 %17, ptr %6, align 4
  %19 = load ptr, ptr %4, align 8
  %20 = load i32, ptr %6, align 4
  %21 = invoke noundef i32 @_ZStanSt12memory_orderSt23__memory_order_modifier(i32 noundef %20, i32 noundef 65535)
          to label %22 unwind label %33

22:                                               ; preds = %3
  store i32 %21, ptr %7, align 4
  %23 = load i32, ptr %6, align 4
  %24 = load i8, ptr %5, align 1
  %25 = trunc i8 %24 to i1
  %26 = zext i1 %25 to i8
  store i8 %26, ptr %8, align 1
  switch i32 %23, label %27 [
    i32 3, label %29
    i32 5, label %31
  ]

27:                                               ; preds = %22
  %28 = load i8, ptr %8, align 1
  store atomic i8 %28, ptr %19 monotonic, align 1
  br label %36

29:                                               ; preds = %22
  %30 = load i8, ptr %8, align 1
  store atomic i8 %30, ptr %19 release, align 1
  br label %36

31:                                               ; preds = %22
  %32 = load i8, ptr %8, align 1
  store atomic i8 %32, ptr %19 seq_cst, align 1
  br label %36

33:                                               ; preds = %3
  %34 = landingpad { ptr, i32 }
          catch ptr null
  %35 = extractvalue { ptr, i32 } %34, 0
  call void @__clang_call_terminate(ptr %35) #15
  unreachable

36:                                               ; preds = %31, %29, %27
  ret void
}

; Function Attrs: mustprogress uwtable
define linkonce_odr void @_ZN3tbb6detail2d014atomic_backoff5pauseEv(ptr noundef nonnull align 4 dereferenceable(4) %0) #0 comdat align 2 {
  %2 = alloca ptr, align 8
  store ptr %0, ptr %2, align 8
  %3 = load ptr, ptr %2, align 8
  %4 = getelementptr inbounds nuw %"class.tbb::detail::d0::atomic_backoff", ptr %3, i32 0, i32 0
  %5 = load i32, ptr %4, align 4
  %6 = icmp sle i32 %5, 16
  br i1 %6, label %7, label %13

7:                                                ; preds = %1
  %8 = getelementptr inbounds nuw %"class.tbb::detail::d0::atomic_backoff", ptr %3, i32 0, i32 0
  %9 = load i32, ptr %8, align 4
  call void @_ZN3tbb6detail2d0L13machine_pauseEi(i32 noundef %9)
  %10 = getelementptr inbounds nuw %"class.tbb::detail::d0::atomic_backoff", ptr %3, i32 0, i32 0
  %11 = load i32, ptr %10, align 4
  %12 = mul nsw i32 %11, 2
  store i32 %12, ptr %10, align 4
  br label %14

13:                                               ; preds = %1
  call void @_ZNSt11this_thread5yieldEv() #10
  br label %14

14:                                               ; preds = %13, %7
  ret void
}

; Function Attrs: mustprogress nounwind uwtable
define linkonce_odr noundef zeroext i1 @_ZNSt6atomicIbE8exchangeEbSt12memory_order(ptr noundef nonnull align 1 dereferenceable(1) %0, i1 noundef zeroext %1, i32 noundef %2) #2 comdat align 2 {
  %4 = alloca ptr, align 8
  %5 = alloca i8, align 1
  %6 = alloca i32, align 4
  %7 = alloca i8, align 1
  %8 = alloca i8, align 1
  %9 = alloca ptr, align 8
  %10 = alloca i8, align 1
  %11 = alloca i32, align 4
  store ptr %0, ptr %9, align 8
  %12 = zext i1 %1 to i8
  store i8 %12, ptr %10, align 1
  store i32 %2, ptr %11, align 4
  %13 = load ptr, ptr %9, align 8
  %14 = getelementptr inbounds nuw %"struct.std::atomic", ptr %13, i32 0, i32 0
  %15 = load i8, ptr %10, align 1
  %16 = trunc i8 %15 to i1
  %17 = load i32, ptr %11, align 4
  store ptr %14, ptr %4, align 8
  %18 = zext i1 %16 to i8
  store i8 %18, ptr %5, align 1
  store i32 %17, ptr %6, align 4
  %19 = load ptr, ptr %4, align 8
  %20 = load i32, ptr %6, align 4
  %21 = load i8, ptr %5, align 1
  %22 = trunc i8 %21 to i1
  %23 = zext i1 %22 to i8
  store i8 %23, ptr %7, align 1
  switch i32 %20, label %24 [
    i32 1, label %27
    i32 2, label %27
    i32 3, label %30
    i32 4, label %33
    i32 5, label %36
  ]

24:                                               ; preds = %3
  %25 = load i8, ptr %7, align 1
  %26 = atomicrmw xchg ptr %19, i8 %25 monotonic, align 1
  store i8 %26, ptr %8, align 1
  br label %39

27:                                               ; preds = %3, %3
  %28 = load i8, ptr %7, align 1
  %29 = atomicrmw xchg ptr %19, i8 %28 acquire, align 1
  store i8 %29, ptr %8, align 1
  br label %39

30:                                               ; preds = %3
  %31 = load i8, ptr %7, align 1
  %32 = atomicrmw xchg ptr %19, i8 %31 release, align 1
  store i8 %32, ptr %8, align 1
  br label %39

33:                                               ; preds = %3
  %34 = load i8, ptr %7, align 1
  %35 = atomicrmw xchg ptr %19, i8 %34 acq_rel, align 1
  store i8 %35, ptr %8, align 1
  br label %39

36:                                               ; preds = %3
  %37 = load i8, ptr %7, align 1
  %38 = atomicrmw xchg ptr %19, i8 %37 seq_cst, align 1
  store i8 %38, ptr %8, align 1
  br label %39

39:                                               ; preds = %36, %33, %30, %27, %24
  %40 = load i8, ptr %8, align 1
  %41 = trunc i8 %40 to i1
  ret i1 %41
}

; Function Attrs: mustprogress nounwind uwtable
define linkonce_odr void @_ZN3tbb6detail2d115call_itt_notifyENS1_11notify_typeEPv(i32 noundef %0, ptr noundef %1) #2 comdat {
  %3 = alloca i32, align 4
  %4 = alloca ptr, align 8
  store i32 %0, ptr %3, align 4
  store ptr %1, ptr %4, align 8
  ret void
}

; Function Attrs: mustprogress nounwind uwtable
define linkonce_odr void @_ZN3tbb6detail2d014atomic_backoffC2Ev(ptr noundef nonnull align 4 dereferenceable(4) %0) unnamed_addr #2 comdat align 2 {
  %2 = alloca ptr, align 8
  store ptr %0, ptr %2, align 8
  %3 = load ptr, ptr %2, align 8
  %4 = getelementptr inbounds nuw %"class.tbb::detail::d0::atomic_backoff", ptr %3, i32 0, i32 0
  store i32 1, ptr %4, align 4
  ret void
}

; Function Attrs: mustprogress nounwind uwtable
define linkonce_odr void @_ZN3tbb6detail2d110spin_mutex6unlockEv(ptr noundef nonnull align 1 dereferenceable(1) %0) #2 comdat align 2 {
  %2 = alloca ptr, align 8
  store ptr %0, ptr %2, align 8
  %3 = load ptr, ptr %2, align 8
  call void @_ZN3tbb6detail2d115call_itt_notifyENS1_11notify_typeEPv(i32 noundef 3, ptr noundef %3)
  %4 = getelementptr inbounds nuw %"class.tbb::detail::d1::spin_mutex", ptr %3, i32 0, i32 0
  call void @_ZNSt6atomicIbE5storeEbSt12memory_order(ptr noundef nonnull align 1 dereferenceable(1) %4, i1 noundef zeroext false, i32 noundef 3) #10
  ret void
}

; Function Attrs: mustprogress uwtable
define linkonce_odr void @_ZN3tbb6detail2d110spin_mutex4lockEv(ptr noundef nonnull align 1 dereferenceable(1) %0) #0 comdat align 2 {
  %2 = alloca ptr, align 8
  %3 = alloca %"class.tbb::detail::d0::atomic_backoff", align 4
  store ptr %0, ptr %2, align 8
  %4 = load ptr, ptr %2, align 8
  call void @_ZN3tbb6detail2d014atomic_backoffC2Ev(ptr noundef nonnull align 4 dereferenceable(4) %3)
  call void @_ZN3tbb6detail2d115call_itt_notifyENS1_11notify_typeEPv(i32 noundef 0, ptr noundef %4)
  br label %5

5:                                                ; preds = %8, %1
  %6 = getelementptr inbounds nuw %"class.tbb::detail::d1::spin_mutex", ptr %4, i32 0, i32 0
  %7 = call noundef zeroext i1 @_ZNSt6atomicIbE8exchangeEbSt12memory_order(ptr noundef nonnull align 1 dereferenceable(1) %6, i1 noundef zeroext true, i32 noundef 5) #10
  br i1 %7, label %8, label %9

8:                                                ; preds = %5
  call void @_ZN3tbb6detail2d014atomic_backoff5pauseEv(ptr noundef nonnull align 4 dereferenceable(4) %3)
  br label %5, !llvm.loop !13

9:                                                ; preds = %5
  call void @_ZN3tbb6detail2d115call_itt_notifyENS1_11notify_typeEPv(i32 noundef 2, ptr noundef %4)
  ret void
}

; Function Attrs: mustprogress nounwind uwtable
define linkonce_odr noundef ptr @_ZNKSt12__shared_ptrIN32pxrInternal_v0_24__pxrReserved__16TfTemplateString5_DataELN9__gnu_cxx12_Lock_policyE2EE3getEv(ptr noundef nonnull align 8 dereferenceable(16) %0) #2 comdat align 2 {
  %2 = alloca ptr, align 8
  store ptr %0, ptr %2, align 8
  %3 = load ptr, ptr %2, align 8
  %4 = getelementptr inbounds nuw %"class.std::__shared_ptr", ptr %3, i32 0, i32 0
  %5 = load ptr, ptr %4, align 8
  ret ptr %5
}

; Function Attrs: noreturn nounwind uwtable
define linkonce_odr hidden void @__clang_call_terminate(ptr noundef %0) #6 comdat {
  %2 = call ptr @__cxa_begin_catch(ptr %0) #10
  call void @_ZSt9terminatev() #15
  unreachable
}

; Function Attrs: mustprogress uwtable
define linkonce_odr void @_ZN3tbb6detail2d118unique_scoped_lockINS1_10spin_mutexEE7releaseEv(ptr noundef nonnull align 8 dereferenceable(8) %0) #0 comdat align 2 {
  %2 = alloca ptr, align 8
  store ptr %0, ptr %2, align 8
  %3 = load ptr, ptr %2, align 8
  %4 = getelementptr inbounds nuw %"class.tbb::detail::d1::unique_scoped_lock", ptr %3, i32 0, i32 0
  %5 = load ptr, ptr %4, align 8
  call void @_ZN3tbb6detail2d110spin_mutex6unlockEv(ptr noundef nonnull align 1 dereferenceable(1) %5)
  %6 = getelementptr inbounds nuw %"class.tbb::detail::d1::unique_scoped_lock", ptr %3, i32 0, i32 0
  store ptr null, ptr %6, align 8
  ret void
}

; Function Attrs: mustprogress uwtable
define linkonce_odr void @_ZN3tbb6detail2d118unique_scoped_lockINS1_10spin_mutexEE7acquireERS3_(ptr noundef nonnull align 8 dereferenceable(8) %0, ptr noundef nonnull align 1 dereferenceable(1) %1) #0 comdat align 2 {
  %3 = alloca ptr, align 8
  %4 = alloca ptr, align 8
  store ptr %0, ptr %3, align 8
  store ptr %1, ptr %4, align 8
  %5 = load ptr, ptr %3, align 8
  %6 = load ptr, ptr %4, align 8
  %7 = getelementptr inbounds nuw %"class.tbb::detail::d1::unique_scoped_lock", ptr %5, i32 0, i32 0
  store ptr %6, ptr %7, align 8
  %8 = load ptr, ptr %4, align 8
  call void @_ZN3tbb6detail2d110spin_mutex4lockEv(ptr noundef nonnull align 1 dereferenceable(1) %8)
  ret void
}

; Function Attrs: mustprogress nounwind uwtable
define linkonce_odr noundef ptr @_ZNKSt19__shared_ptr_accessIN32pxrInternal_v0_24__pxrReserved__16TfTemplateString5_DataELN9__gnu_cxx12_Lock_policyE2ELb0ELb0EE6_M_getEv(ptr noundef nonnull align 1 dereferenceable(1) %0) #2 comdat align 2 {
  %2 = alloca ptr, align 8
  store ptr %0, ptr %2, align 8
  %3 = load ptr, ptr %2, align 8
  %4 = call noundef ptr @_ZNKSt12__shared_ptrIN32pxrInternal_v0_24__pxrReserved__16TfTemplateString5_DataELN9__gnu_cxx12_Lock_policyE2EE3getEv(ptr noundef nonnull align 8 dereferenceable(16) %3) #10
  ret ptr %4
}

; Function Attrs: mustprogress nounwind uwtable
define linkonce_odr void @_ZN3tbb6detail2d118unique_scoped_lockINS1_10spin_mutexEED2Ev(ptr noundef nonnull align 8 dereferenceable(8) %0) unnamed_addr #2 comdat align 2 personality ptr @__gxx_personality_v0 {
  %2 = alloca ptr, align 8
  store ptr %0, ptr %2, align 8
  %3 = load ptr, ptr %2, align 8
  %4 = getelementptr inbounds nuw %"class.tbb::detail::d1::unique_scoped_lock", ptr %3, i32 0, i32 0
  %5 = load ptr, ptr %4, align 8
  %6 = icmp ne ptr %5, null
  br i1 %6, label %7, label %9

7:                                                ; preds = %1
  invoke void @_ZN3tbb6detail2d118unique_scoped_lockINS1_10spin_mutexEE7releaseEv(ptr noundef nonnull align 8 dereferenceable(8) %3)
          to label %8 unwind label %10

8:                                                ; preds = %7
  br label %9

9:                                                ; preds = %8, %1
  ret void

10:                                               ; preds = %7
  %11 = landingpad { ptr, i32 }
          catch ptr null
  %12 = extractvalue { ptr, i32 } %11, 0
  call void @__clang_call_terminate(ptr %12) #15
  unreachable
}

; Function Attrs: mustprogress uwtable
define linkonce_odr void @_ZN3tbb6detail2d118unique_scoped_lockINS1_10spin_mutexEEC2ERS3_(ptr noundef nonnull align 8 dereferenceable(8) %0, ptr noundef nonnull align 1 dereferenceable(1) %1) unnamed_addr #0 comdat align 2 {
  %3 = alloca ptr, align 8
  %4 = alloca ptr, align 8
  store ptr %0, ptr %3, align 8
  store ptr %1, ptr %4, align 8
  %5 = load ptr, ptr %3, align 8
  %6 = getelementptr inbounds nuw %"class.tbb::detail::d1::unique_scoped_lock", ptr %5, i32 0, i32 0
  store ptr null, ptr %6, align 8
  %7 = load ptr, ptr %4, align 8
  call void @_ZN3tbb6detail2d118unique_scoped_lockINS1_10spin_mutexEE7acquireERS3_(ptr noundef nonnull align 8 dereferenceable(8) %5, ptr noundef nonnull align 1 dereferenceable(1) %7)
  ret void
}

; Function Attrs: mustprogress nounwind uwtable
define linkonce_odr noundef ptr @_ZNKSt19__shared_ptr_accessIN32pxrInternal_v0_24__pxrReserved__16TfTemplateString5_DataELN9__gnu_cxx12_Lock_policyE2ELb0ELb0EEptEv(ptr noundef nonnull align 1 dereferenceable(1) %0) #2 comdat align 2 {
  %2 = alloca ptr, align 8
  store ptr %0, ptr %2, align 8
  %3 = load ptr, ptr %2, align 8
  %4 = call noundef ptr @_ZNKSt19__shared_ptr_accessIN32pxrInternal_v0_24__pxrReserved__16TfTemplateString5_DataELN9__gnu_cxx12_Lock_policyE2ELb0ELb0EE6_M_getEv(ptr noundef nonnull align 1 dereferenceable(1) %3) #10
  ret ptr %4
}

; Function Attrs: mustprogress uwtable
define void @_ZNK32pxrInternal_v0_24__pxrReserved__16TfTemplateString14_ParseTemplateEv(ptr noundef nonnull align 8 dereferenceable(16) %0) #0 align 2 personality ptr @__gxx_personality_v0 {
  %2 = alloca ptr, align 8
  %3 = alloca %"class.tbb::detail::d1::unique_scoped_lock", align 8
  %4 = alloca i64, align 8
  %5 = alloca ptr, align 8
  %6 = alloca i32, align 4
  store ptr %0, ptr %2, align 8
  %7 = load ptr, ptr %2, align 8
  %8 = getelementptr inbounds nuw %"class.pxrInternal_v0_24__pxrReserved__::TfTemplateString", ptr %7, i32 0, i32 0
  %9 = call noundef ptr @_ZNKSt19__shared_ptr_accessIN32pxrInternal_v0_24__pxrReserved__16TfTemplateString5_DataELN9__gnu_cxx12_Lock_policyE2ELb0ELb0EEptEv(ptr noundef nonnull align 1 dereferenceable(1) %8) #10
  %10 = getelementptr inbounds nuw %"struct.pxrInternal_v0_24__pxrReserved__::TfTemplateString::_Data", ptr %9, i32 0, i32 5
  call void @_ZN3tbb6detail2d118unique_scoped_lockINS1_10spin_mutexEEC2ERS3_(ptr noundef nonnull align 8 dereferenceable(8) %3, ptr noundef nonnull align 1 dereferenceable(1) %10)
  %11 = getelementptr inbounds nuw %"class.pxrInternal_v0_24__pxrReserved__::TfTemplateString", ptr %7, i32 0, i32 0
  %12 = call noundef ptr @_ZNKSt19__shared_ptr_accessIN32pxrInternal_v0_24__pxrReserved__16TfTemplateString5_DataELN9__gnu_cxx12_Lock_policyE2ELb0ELb0EEptEv(ptr noundef nonnull align 1 dereferenceable(1) %11) #10
  %13 = getelementptr inbounds nuw %"struct.pxrInternal_v0_24__pxrReserved__::TfTemplateString::_Data", ptr %12, i32 0, i32 2
  %14 = load i8, ptr %13, align 8
  %15 = trunc i8 %14 to i1
  br i1 %15, label %32, label %16

16:                                               ; preds = %1
  store i64 0, ptr %4, align 8
  br label %17

17:                                               ; preds = %23, %16
  %18 = getelementptr inbounds nuw %"class.pxrInternal_v0_24__pxrReserved__::TfTemplateString", ptr %7, i32 0, i32 0
  %19 = call noundef ptr @_ZNKSt19__shared_ptr_accessIN32pxrInternal_v0_24__pxrReserved__16TfTemplateString5_DataELN9__gnu_cxx12_Lock_policyE2ELb0ELb0EEptEv(ptr noundef nonnull align 1 dereferenceable(1) %18) #10
  %20 = getelementptr inbounds nuw %"struct.pxrInternal_v0_24__pxrReserved__::TfTemplateString::_Data", ptr %19, i32 0, i32 4
  %21 = invoke noundef zeroext i1 @_ZNK32pxrInternal_v0_24__pxrReserved__16TfTemplateString20_FindNextPlaceHolderEPmPSt6vectorINSt7__cxx1112basic_stringIcSt11char_traitsIcESaIcEEESaIS8_EE(ptr noundef nonnull align 8 dereferenceable(16) %7, ptr noundef %4, ptr noundef %20)
          to label %22 unwind label %24

22:                                               ; preds = %17
  br i1 %21, label %23, label %28

23:                                               ; preds = %22
  br label %17, !llvm.loop !6

24:                                               ; preds = %17
  %25 = landingpad { ptr, i32 }
          cleanup
  %26 = extractvalue { ptr, i32 } %25, 0
  store ptr %26, ptr %5, align 8
  %27 = extractvalue { ptr, i32 } %25, 1
  store i32 %27, ptr %6, align 4
  call void @_ZN3tbb6detail2d118unique_scoped_lockINS1_10spin_mutexEED2Ev(ptr noundef nonnull align 8 dereferenceable(8) %3) #10
  br label %33

28:                                               ; preds = %22
  %29 = getelementptr inbounds nuw %"class.pxrInternal_v0_24__pxrReserved__::TfTemplateString", ptr %7, i32 0, i32 0
  %30 = call noundef ptr @_ZNKSt19__shared_ptr_accessIN32pxrInternal_v0_24__pxrReserved__16TfTemplateString5_DataELN9__gnu_cxx12_Lock_policyE2ELb0ELb0EEptEv(ptr noundef nonnull align 1 dereferenceable(1) %29) #10
  %31 = getelementptr inbounds nuw %"struct.pxrInternal_v0_24__pxrReserved__::TfTemplateString::_Data", ptr %30, i32 0, i32 2
  store i8 1, ptr %31, align 8
  br label %32

32:                                               ; preds = %28, %1
  call void @_ZN3tbb6detail2d118unique_scoped_lockINS1_10spin_mutexEED2Ev(ptr noundef nonnull align 8 dereferenceable(8) %3) #10
  ret void

33:                                               ; preds = %24
  %34 = load ptr, ptr %5, align 8
  %35 = load i32, ptr %6, align 4
  %36 = insertvalue { ptr, i32 } poison, ptr %34, 0
  %37 = insertvalue { ptr, i32 } %36, i32 %35, 1
  resume { ptr, i32 } %37
}