; Function Attrs: mustprogress uwtable
define void @_ZNK32pxrInternal_v0_24__pxrReserved__16TfTemplateString14_ParseTemplateEv(ptr nocapture noundef nonnull readonly align 8 dereferenceable(16) %0) local_unnamed_addr #0 align 2 personality ptr @__gxx_personality_v0 {
  %2 = alloca i64, align 8
  %3 = load ptr, ptr %0, align 8
  %4 = getelementptr inbounds nuw i8, ptr %3, i64 88
  %5 = atomicrmw xchg ptr %4, i8 1 seq_cst, align 1
  %6 = trunc i8 %5 to i1
  br i1 %6, label %.lr.ph.i.i.i, label %_ZN3tbb6detail2d118unique_scoped_lockINS1_10spin_mutexEEC2ERS3_.exit

.lr.ph.i.i.i:                                     ; preds = %1, %_ZN3tbb6detail2d014atomic_backoff5pauseEv.exit.i.i.i
  %.sroa.0.02.i.i.i = phi i32 [ %.sroa.0.1.i.i.i, %_ZN3tbb6detail2d014atomic_backoff5pauseEv.exit.i.i.i ], [ 1, %1 ]
  %7 = icmp slt i32 %.sroa.0.02.i.i.i, 17
  br i1 %7, label %8, label %13

8:                                                ; preds = %.lr.ph.i.i.i
  %9 = icmp sgt i32 %.sroa.0.02.i.i.i, 0
  br i1 %9, label %.lr.ph.i.i.i.i.i, label %_ZN3tbb6detail2d0L13machine_pauseEi.exit.i.i.i.i

.lr.ph.i.i.i.i.i:                                 ; preds = %8, %.lr.ph.i.i.i.i.i
  %.01.i.i.i.i.i = phi i32 [ %10, %.lr.ph.i.i.i.i.i ], [ %.sroa.0.02.i.i.i, %8 ]
  %10 = add nsw i32 %.01.i.i.i.i.i, -1
  tail call void @llvm.x86.sse2.pause()
  %11 = icmp ugt i32 %.01.i.i.i.i.i, 1
  br i1 %11, label %.lr.ph.i.i.i.i.i, label %_ZN3tbb6detail2d0L13machine_pauseEi.exit.i.i.i.i, !llvm.loop !4

_ZN3tbb6detail2d0L13machine_pauseEi.exit.i.i.i.i: ; preds = %.lr.ph.i.i.i.i.i, %8
  %12 = shl nsw i32 %.sroa.0.02.i.i.i, 1
  br label %_ZN3tbb6detail2d014atomic_backoff5pauseEv.exit.i.i.i

13:                                               ; preds = %.lr.ph.i.i.i
  %14 = tail call noundef i32 @sched_yield() #9
  br label %_ZN3tbb6detail2d014atomic_backoff5pauseEv.exit.i.i.i

_ZN3tbb6detail2d014atomic_backoff5pauseEv.exit.i.i.i: ; preds = %13, %_ZN3tbb6detail2d0L13machine_pauseEi.exit.i.i.i.i
  %.sroa.0.1.i.i.i = phi i32 [ %12, %_ZN3tbb6detail2d0L13machine_pauseEi.exit.i.i.i.i ], [ %.sroa.0.02.i.i.i, %13 ]
  %15 = atomicrmw xchg ptr %4, i8 1 seq_cst, align 1
  %16 = trunc i8 %15 to i1
  br i1 %16, label %.lr.ph.i.i.i, label %_ZN3tbb6detail2d118unique_scoped_lockINS1_10spin_mutexEEC2ERS3_.exit, !llvm.loop !6

_ZN3tbb6detail2d118unique_scoped_lockINS1_10spin_mutexEEC2ERS3_.exit: ; preds = %_ZN3tbb6detail2d014atomic_backoff5pauseEv.exit.i.i.i, %1
  %17 = load ptr, ptr %0, align 8
  %18 = getelementptr inbounds nuw i8, ptr %17, i64 56
  %19 = load i8, ptr %18, align 8
  %20 = trunc i8 %19 to i1
  br i1 %20, label %_ZN3tbb6detail2d118unique_scoped_lockINS1_10spin_mutexEED2Ev.exit3, label %21

21:                                               ; preds = %_ZN3tbb6detail2d118unique_scoped_lockINS1_10spin_mutexEEC2ERS3_.exit
  store i64 0, ptr %2, align 8
  br label %22

22:                                               ; preds = %26, %21
  %23 = load ptr, ptr %0, align 8
  %24 = getelementptr inbounds nuw i8, ptr %23, i64 64
  %25 = invoke noundef zeroext i1 @_ZNK32pxrInternal_v0_24__pxrReserved__16TfTemplateString20_FindNextPlaceHolderEPmPSt6vectorINSt7__cxx1112basic_stringIcSt11char_traitsIcESaIcEEESaIS8_EE(ptr noundef nonnull align 8 dereferenceable(16) %0, ptr noundef nonnull %2, ptr noundef nonnull %24)
          to label %26 unwind label %_ZN3tbb6detail2d118unique_scoped_lockINS1_10spin_mutexEED2Ev.exit

26:                                               ; preds = %22
  br i1 %25, label %22, label %28, !llvm.loop !7

_ZN3tbb6detail2d118unique_scoped_lockINS1_10spin_mutexEED2Ev.exit: ; preds = %22
  %27 = landingpad { ptr, i32 }
          cleanup
  store atomic i8 0, ptr %4 release, align 1
  resume { ptr, i32 } %27

28:                                               ; preds = %26
  %29 = load ptr, ptr %0, align 8
  %30 = getelementptr inbounds nuw i8, ptr %29, i64 56
  store i8 1, ptr %30, align 8
  br label %_ZN3tbb6detail2d118unique_scoped_lockINS1_10spin_mutexEED2Ev.exit3

_ZN3tbb6detail2d118unique_scoped_lockINS1_10spin_mutexEED2Ev.exit3: ; preds = %28, %_ZN3tbb6detail2d118unique_scoped_lockINS1_10spin_mutexEEC2ERS3_.exit
  store atomic i8 0, ptr %4 release, align 1
  ret void
}